; Function Attrs: mustprogress nofree norecurse nosync nounwind memory(readwrite, inaccessiblemem: none) uwtable
define hidden noundef float @_ZN5EmdL114compuTotalFlowEv(ptr noundef nonnull readonly align 8 captures(none) dereferenceable(336) %0) local_unnamed_addr #7 align 2 {
  %2 = getelementptr inbounds nuw i8, ptr %0, i64 240
  %3 = load ptr, ptr %2, align 8, !tbaa !66
  %4 = getelementptr inbounds nuw i8, ptr %0, i64 216
  %5 = load ptr, ptr %4, align 8, !tbaa !67
  store ptr %3, ptr %5, align 8, !tbaa !68
  br label %9

.loopexit.loopexit:                               ; preds = %.lr.ph
  %6 = trunc nsw i64 %indvars.iv.next to i32
  br label %.loopexit

.loopexit:                                        ; preds = %.loopexit.loopexit, %9
  %.115.lcssa = phi float [ %.01421, %9 ], [ %16, %.loopexit.loopexit ]
  %.1.lcssa = phi i32 [ %.01322, %9 ], [ %6, %.loopexit.loopexit ]
  %7 = sext i32 %.1.lcssa to i64
  %8 = icmp slt i64 %indvars.iv.next27, %7
  br i1 %8, label %9, label %22, !llvm.loop !86

9:                                                ; preds = %1, %.loopexit
  %indvars.iv26 = phi i64 [ 0, %1 ], [ %indvars.iv.next27, %.loopexit ]
  %.01322 = phi i32 [ 1, %1 ], [ %.1.lcssa, %.loopexit ]
  %.01421 = phi float [ 0.000000e+00, %1 ], [ %.115.lcssa, %.loopexit ]
  %indvars.iv.next27 = add nuw nsw i64 %indvars.iv26, 1
  %10 = getelementptr inbounds nuw ptr, ptr %5, i64 %indvars.iv26
  %11 = load ptr, ptr %10, align 8, !tbaa !68
  %12 = getelementptr inbounds nuw i8, ptr %11, i64 32
  %13 = load ptr, ptr %12, align 8, !tbaa !70
  %.not16 = icmp eq ptr %13, null
  br i1 %.not16, label %.loopexit, label %.lr.ph.preheader

.lr.ph.preheader:                                 ; preds = %9
  %14 = sext i32 %.01322 to i64
  br label %.lr.ph

.lr.ph:                                           ; preds = %.lr.ph.preheader, %.lr.ph
  %indvars.iv = phi i64 [ %14, %.lr.ph.preheader ], [ %indvars.iv.next, %.lr.ph ]
  %.019 = phi ptr [ %13, %.lr.ph.preheader ], [ %20, %.lr.ph ]
  %.11517 = phi float [ %.01421, %.lr.ph.preheader ], [ %16, %.lr.ph ]
  %15 = load float, ptr %.019, align 8, !tbaa !87
  %16 = fadd float %.11517, %15
  %17 = getelementptr inbounds nuw i8, ptr %.019, i64 16
  %18 = load ptr, ptr %17, align 8, !tbaa !72
  %19 = getelementptr inbounds nuw i8, ptr %.019, i64 24
  %20 = load ptr, ptr %19, align 8, !tbaa !77
  %indvars.iv.next = add nsw i64 %indvars.iv, 1
  %21 = getelementptr inbounds nuw ptr, ptr %5, i64 %indvars.iv
  store ptr %18, ptr %21, align 8, !tbaa !68
  %.not = icmp eq ptr %20, null
  br i1 %.not, label %.loopexit.loopexit, label %.lr.ph, !llvm.loop !88

22:                                               ; preds = %.loopexit
  ret float %.115.lcssa
}